target datalayout = "e-m:e-p270:32:32-p271:32:32-p272:64:64-i64:64-i128:128-f80:128-n8:16:32:64-S128"
target triple = "x86_64-pc-linux-gnu"

@.str.257 = private unnamed_addr constant [2 x i8] c"\0A\00", align 1
@bio_err = external global ptr, align 8
@.str.333 = private unnamed_addr constant [5 x i8] c"    \00", align 1

; Function Attrs: inlinehint nounwind uwtable
define internal ptr @ossl_check_const_GENERAL_NAME_sk_type(ptr noundef %0) #3 {
  %2 = alloca ptr, align 8
  store ptr %0, ptr %2, align 8, !tbaa !82
  %3 = load ptr, ptr %2, align 8, !tbaa !82
  ret ptr %3
}

; Function Attrs: inlinehint nounwind uwtable
define internal ptr @ossl_check_const_GENERAL_NAMES_sk_type(ptr noundef %0) #3 {
  %2 = alloca ptr, align 8
  store ptr %0, ptr %2, align 8, !tbaa !77
  %3 = load ptr, ptr %2, align 8, !tbaa !77
  ret ptr %3
}

; Function Attrs: nounwind uwtable
define internal void @gnames_stack_print(ptr noundef %0) #0 {
  %2 = alloca ptr, align 8
  %3 = alloca ptr, align 8
  %4 = alloca ptr, align 8
  %5 = alloca i32, align 4
  %6 = alloca i32, align 4
  store ptr %0, ptr %2, align 8, !tbaa !77
  call void @llvm.lifetime.start.p0(i64 8, ptr %3) #4
  call void @llvm.lifetime.start.p0(i64 8, ptr %4) #4
  call void @llvm.lifetime.start.p0(i64 4, ptr %5) #4
  call void @llvm.lifetime.start.p0(i64 4, ptr %6) #4
  store i32 0, ptr %5, align 4, !tbaa !4
  br label %7

7:                                                ; preds = %40, %1
  %8 = load i32, ptr %5, align 4, !tbaa !4
  %9 = load ptr, ptr %2, align 8, !tbaa !77
  %10 = call ptr @ossl_check_const_GENERAL_NAMES_sk_type(ptr noundef %9)
  %11 = call i32 @OPENSSL_sk_num(ptr noundef %10)
  %12 = icmp slt i32 %8, %11
  br i1 %12, label %13, label %43

13:                                               ; preds = %7
  %14 = load ptr, ptr %2, align 8, !tbaa !77
  %15 = call ptr @ossl_check_const_GENERAL_NAMES_sk_type(ptr noundef %14)
  %16 = load i32, ptr %5, align 4, !tbaa !4
  %17 = call ptr @OPENSSL_sk_value(ptr noundef %15, i32 noundef %16)
  store ptr %17, ptr %3, align 8, !tbaa !82
  store i32 0, ptr %6, align 4, !tbaa !4
  br label %18

18:                                               ; preds = %36, %13
  %19 = load i32, ptr %6, align 4, !tbaa !4
  %20 = load ptr, ptr %3, align 8, !tbaa !82
  %21 = call ptr @ossl_check_const_GENERAL_NAME_sk_type(ptr noundef %20)
  %22 = call i32 @OPENSSL_sk_num(ptr noundef %21)
  %23 = icmp slt i32 %19, %22
  br i1 %23, label %24, label %39

24:                                               ; preds = %18
  %25 = load ptr, ptr %3, align 8, !tbaa !82
  %26 = call ptr @ossl_check_const_GENERAL_NAME_sk_type(ptr noundef %25)
  %27 = load i32, ptr %6, align 4, !tbaa !4
  %28 = call ptr @OPENSSL_sk_value(ptr noundef %26, i32 noundef %27)
  store ptr %28, ptr %4, align 8, !tbaa !84
  %29 = load ptr, ptr @bio_err, align 8, !tbaa !15
  %30 = call i32 @BIO_puts(ptr noundef %29, ptr noundef @.str.333)
  %31 = load ptr, ptr @bio_err, align 8, !tbaa !15
  %32 = load ptr, ptr %4, align 8, !tbaa !84
  %33 = call i32 @GENERAL_NAME_print(ptr noundef %31, ptr noundef %32)
  %34 = load ptr, ptr @bio_err, align 8, !tbaa !15
  %35 = call i32 @BIO_puts(ptr noundef %34, ptr noundef @.str.257)
  br label %36

36:                                               ; preds = %24
  %37 = load i32, ptr %6, align 4, !tbaa !4
  %38 = add nsw i32 %37, 1
  store i32 %38, ptr %6, align 4, !tbaa !4
  br label %18, !llvm.loop !86

39:                                               ; preds = %18
  br label %40

40:                                               ; preds = %39
  %41 = load i32, ptr %5, align 4, !tbaa !4
  %42 = add nsw i32 %41, 1
  store i32 %42, ptr %5, align 4, !tbaa !4
  br label %7, !llvm.loop !87

43:                                               ; preds = %7
  call void @llvm.lifetime.end.p0(i64 4, ptr %6) #4
  call void @llvm.lifetime.end.p0(i64 4, ptr %5) #4
  call void @llvm.lifetime.end.p0(i64 8, ptr %4) #4
  call void @llvm.lifetime.end.p0(i64 8, ptr %3) #4
  ret void
}