; Function Attrs: nounwind uwtable
define internal fastcc void @gnames_stack_print(ptr noundef %0) unnamed_addr #0 {
  %2 = tail call i32 @OPENSSL_sk_num(ptr noundef %0) #3
  %3 = icmp sgt i32 %2, 0
  br i1 %3, label %.lr.ph14, label %._crit_edge15

.lr.ph14:                                         ; preds = %1, %._crit_edge
  %.01012 = phi i32 [ %17, %._crit_edge ], [ 0, %1 ]
  %4 = tail call ptr @OPENSSL_sk_value(ptr noundef %0, i32 noundef %.01012) #3
  %5 = tail call i32 @OPENSSL_sk_num(ptr noundef %4) #3
  %6 = icmp sgt i32 %5, 0
  br i1 %6, label %.lr.ph, label %._crit_edge

.lr.ph:                                           ; preds = %.lr.ph14, %.lr.ph
  %.011 = phi i32 [ %14, %.lr.ph ], [ 0, %.lr.ph14 ]
  %7 = tail call ptr @OPENSSL_sk_value(ptr noundef %4, i32 noundef %.011) #3
  %8 = load ptr, ptr @bio_err, align 8, !tbaa !4
  %9 = tail call i32 @BIO_puts(ptr noundef %8, ptr noundef nonnull @.str.333) #3
  %10 = load ptr, ptr @bio_err, align 8, !tbaa !4
  %11 = tail call i32 @GENERAL_NAME_print(ptr noundef %10, ptr noundef %7) #3
  %12 = load ptr, ptr @bio_err, align 8, !tbaa !4
  %13 = tail call i32 @BIO_puts(ptr noundef %12, ptr noundef nonnull @.str.257) #3
  %14 = add nuw nsw i32 %.011, 1
  %15 = tail call i32 @OPENSSL_sk_num(ptr noundef %4) #3
  %16 = icmp slt i32 %14, %15
  br i1 %16, label %.lr.ph, label %._crit_edge, !llvm.loop !46

._crit_edge:                                      ; preds = %.lr.ph, %.lr.ph14
  %17 = add nuw nsw i32 %.01012, 1
  %18 = tail call i32 @OPENSSL_sk_num(ptr noundef %0) #3
  %19 = icmp slt i32 %17, %18
  br i1 %19, label %.lr.ph14, label %._crit_edge15, !llvm.loop !47

._crit_edge15:                                    ; preds = %._crit_edge, %1
  ret void
}